target datalayout = "e-m:e-p270:32:32-p271:32:32-p272:64:64-i64:64-i128:128-f80:128-n8:16:32:64-S128"
target triple = "x86_64-pc-linux-gnu"

%"class.std::__cxx11::basic_string" = type { %"struct.std::__cxx11::basic_string<char>::_Alloc_hider", i64, %union.anon }
%"struct.std::__cxx11::basic_string<char>::_Alloc_hider" = type { ptr }
%union.anon = type { i64, [8 x i8] }
%"class.google::protobuf::MessageLite" = type { ptr, %"class.google::protobuf::internal::InternalMetadata" }
%"class.google::protobuf::internal::InternalMetadata" = type { ptr }
%"class.google::protobuf::internal::CachedSize" = type { %"struct.std::atomic.47" }
%"struct.std::atomic.47" = type { %"struct.std::__atomic_base.48" }
%"struct.std::__atomic_base.48" = type { i32 }
%"class.google::protobuf::internal::HasBits" = type { [1 x i32] }
%"struct.google::protobuf::internal::ArenaStringPtr" = type { ptr }
%"class.i18n::phonenumbers::PhoneNumber" = type { %"class.google::protobuf::MessageLite", %"class.google::protobuf::internal::HasBits", %"class.google::protobuf::internal::CachedSize", %"struct.google::protobuf::internal::ArenaStringPtr", %"struct.google::protobuf::internal::ArenaStringPtr", %"struct.google::protobuf::internal::ArenaStringPtr", i64, i32, i8, i32, i32 }

; Function Attrs: mustprogress nounwind uwtable
define linkonce_odr dso_local noundef i32 @_ZNK4i18n12phonenumbers11PhoneNumber22_internal_country_codeEv(ptr noundef nonnull align 8 dereferenceable(72) %0) #5 comdat align 2 {
  %2 = alloca ptr, align 8
  store ptr %0, ptr %2, align 8
  %3 = load ptr, ptr %2, align 8
  %4 = getelementptr inbounds %"class.i18n::phonenumbers::PhoneNumber", ptr %3, i32 0, i32 7
  %5 = load i32, ptr %4, align 8
  ret i32 %5
}

; Function Attrs: mustprogress uwtable
define linkonce_odr dso_local noundef i32 @_ZNK4i18n12phonenumbers11PhoneNumber12country_codeEv(ptr noundef nonnull align 8 dereferenceable(72) %0) #4 comdat align 2 {
  %2 = alloca ptr, align 8
  store ptr %0, ptr %2, align 8
  %3 = load ptr, ptr %2, align 8
  %4 = call noundef i32 @_ZNK4i18n12phonenumbers11PhoneNumber22_internal_country_codeEv(ptr noundef nonnull align 8 dereferenceable(72) %3)
  ret i32 %4
}

; Function Attrs: mustprogress uwtable
define dso_local noundef i32 @_ZNK4i18n12phonenumbers15PhoneNumberUtil13GetNumberTypeERKNS0_11PhoneNumberE(ptr noundef nonnull align 8 dereferenceable(64) %0, ptr noundef nonnull align 8 dereferenceable(72) %1) #4 align 2 personality ptr @__gxx_personality_v0 {
  %3 = alloca i32, align 4
  %4 = alloca ptr, align 8
  %5 = alloca ptr, align 8
  %6 = alloca %"class.std::__cxx11::basic_string", align 8
  %7 = alloca ptr, align 8
  %8 = alloca i32, align 4
  %9 = alloca ptr, align 8
  %10 = alloca i32, align 4
  %11 = alloca %"class.std::__cxx11::basic_string", align 8
  store ptr %0, ptr %4, align 8
  store ptr %1, ptr %5, align 8
  %12 = load ptr, ptr %4, align 8
  call void @_ZNSt7__cxx1112basic_stringIcSt11char_traitsIcESaIcEEC1Ev(ptr noundef nonnull align 8 dereferenceable(32) %6) #3
  %13 = load ptr, ptr %5, align 8
  invoke void @_ZNK4i18n12phonenumbers15PhoneNumberUtil22GetRegionCodeForNumberERKNS0_11PhoneNumberEPNSt7__cxx1112basic_stringIcSt11char_traitsIcESaIcEEE(ptr noundef nonnull align 8 dereferenceable(64) %12, ptr noundef nonnull align 8 dereferenceable(72) %13, ptr noundef %6)
          to label %14 unwind label %23

14:                                               ; preds = %2
  %15 = load ptr, ptr %5, align 8
  %16 = invoke noundef i32 @_ZNK4i18n12phonenumbers11PhoneNumber12country_codeEv(ptr noundef nonnull align 8 dereferenceable(72) %15)
          to label %17 unwind label %23

17:                                               ; preds = %14
  %18 = invoke noundef ptr @_ZNK4i18n12phonenumbers15PhoneNumberUtil33GetMetadataForRegionOrCallingCodeEiRKNSt7__cxx1112basic_stringIcSt11char_traitsIcESaIcEEE(ptr noundef nonnull align 8 dereferenceable(64) %12, i32 noundef %16, ptr noundef nonnull align 8 dereferenceable(32) %6)
          to label %19 unwind label %23

19:                                               ; preds = %17
  store ptr %18, ptr %9, align 8
  %20 = load ptr, ptr %9, align 8
  %21 = icmp ne ptr %20, null
  br i1 %21, label %27, label %22

22:                                               ; preds = %19
  store i32 11, ptr %3, align 4
  store i32 1, ptr %10, align 4
  br label %37

23:                                               ; preds = %17, %14, %2
  %24 = landingpad { ptr, i32 }
          cleanup
  %25 = extractvalue { ptr, i32 } %24, 0
  store ptr %25, ptr %7, align 8
  %26 = extractvalue { ptr, i32 } %24, 1
  store i32 %26, ptr %8, align 4
  br label %39

27:                                               ; preds = %19
  call void @_ZNSt7__cxx1112basic_stringIcSt11char_traitsIcESaIcEEC1Ev(ptr noundef nonnull align 8 dereferenceable(32) %11) #3
  %28 = load ptr, ptr %5, align 8
  invoke void @_ZNK4i18n12phonenumbers15PhoneNumberUtil28GetNationalSignificantNumberERKNS0_11PhoneNumberEPNSt7__cxx1112basic_stringIcSt11char_traitsIcESaIcEEE(ptr noundef nonnull align 8 dereferenceable(64) %12, ptr noundef nonnull align 8 dereferenceable(72) %28, ptr noundef %11)
          to label %29 unwind label %33

29:                                               ; preds = %27
  %30 = load ptr, ptr %9, align 8
  %31 = invoke noundef i32 @_ZNK4i18n12phonenumbers15PhoneNumberUtil19GetNumberTypeHelperERKNSt7__cxx1112basic_stringIcSt11char_traitsIcESaIcEEERKNS0_13PhoneMetadataE(ptr noundef nonnull align 8 dereferenceable(64) %12, ptr noundef nonnull align 8 dereferenceable(32) %11, ptr noundef nonnull align 8 dereferenceable(280) %30)
          to label %32 unwind label %33

32:                                               ; preds = %29
  store i32 %31, ptr %3, align 4
  store i32 1, ptr %10, align 4
  call void @_ZNSt7__cxx1112basic_stringIcSt11char_traitsIcESaIcEED1Ev(ptr noundef nonnull align 8 dereferenceable(32) %11) #3
  br label %37

33:                                               ; preds = %29, %27
  %34 = landingpad { ptr, i32 }
          cleanup
  %35 = extractvalue { ptr, i32 } %34, 0
  store ptr %35, ptr %7, align 8
  %36 = extractvalue { ptr, i32 } %34, 1
  store i32 %36, ptr %8, align 4
  call void @_ZNSt7__cxx1112basic_stringIcSt11char_traitsIcESaIcEED1Ev(ptr noundef nonnull align 8 dereferenceable(32) %11) #3
  br label %39

37:                                               ; preds = %32, %22
  call void @_ZNSt7__cxx1112basic_stringIcSt11char_traitsIcESaIcEED1Ev(ptr noundef nonnull align 8 dereferenceable(32) %6) #3
  %38 = load i32, ptr %3, align 4
  ret i32 %38

39:                                               ; preds = %33, %23
  call void @_ZNSt7__cxx1112basic_stringIcSt11char_traitsIcESaIcEED1Ev(ptr noundef nonnull align 8 dereferenceable(32) %6) #3
  br label %40

40:                                               ; preds = %39
  %41 = load ptr, ptr %7, align 8
  %42 = load i32, ptr %8, align 4
  %43 = insertvalue { ptr, i32 } poison, ptr %41, 0
  %44 = insertvalue { ptr, i32 } %43, i32 %42, 1
  resume { ptr, i32 } %44
}