; Function Attrs: mustprogress uwtable
define dso_local noundef i32 @_ZNK4i18n12phonenumbers15PhoneNumberUtil13GetNumberTypeERKNS0_11PhoneNumberE(ptr nocapture noundef nonnull readonly align 8 dereferenceable(64) %0, ptr nocapture noundef nonnull readonly align 8 dereferenceable(72) %1) local_unnamed_addr #4 align 2 personality ptr @__gxx_personality_v0 {
  %3 = alloca %"class.std::__cxx11::basic_string", align 8
  %4 = alloca %"class.std::__cxx11::basic_string", align 8
  call void @_ZNSt7__cxx1112basic_stringIcSt11char_traitsIcESaIcEEC1Ev(ptr noundef nonnull align 8 dereferenceable(32) %3) #26
  invoke void @_ZNK4i18n12phonenumbers15PhoneNumberUtil22GetRegionCodeForNumberERKNS0_11PhoneNumberEPNSt7__cxx1112basic_stringIcSt11char_traitsIcESaIcEEE(ptr noundef nonnull align 8 dereferenceable(64) %0, ptr noundef nonnull align 8 dereferenceable(72) %1, ptr noundef nonnull %3)
          to label %5 unwind label %10

5:                                                ; preds = %2
  %6 = getelementptr inbounds i8, ptr %1, i64 56
  %7 = load i32, ptr %6, align 8
  %8 = invoke noundef ptr @_ZNK4i18n12phonenumbers15PhoneNumberUtil33GetMetadataForRegionOrCallingCodeEiRKNSt7__cxx1112basic_stringIcSt11char_traitsIcESaIcEEE(ptr noundef nonnull align 8 dereferenceable(64) %0, i32 noundef %7, ptr noundef nonnull align 8 dereferenceable(32) %3)
          to label %9 unwind label %10

9:                                                ; preds = %5
  %.not = icmp eq ptr %8, null
  br i1 %.not, label %18, label %12

10:                                               ; preds = %5, %2
  %11 = landingpad { ptr, i32 }
          cleanup
  br label %19

12:                                               ; preds = %9
  call void @_ZNSt7__cxx1112basic_stringIcSt11char_traitsIcESaIcEEC1Ev(ptr noundef nonnull align 8 dereferenceable(32) %4) #26
  invoke void @_ZNK4i18n12phonenumbers15PhoneNumberUtil28GetNationalSignificantNumberERKNS0_11PhoneNumberEPNSt7__cxx1112basic_stringIcSt11char_traitsIcESaIcEEE(ptr nonnull align 8 poison, ptr noundef nonnull align 8 dereferenceable(72) %1, ptr noundef nonnull %4)
          to label %13 unwind label %16

13:                                               ; preds = %12
  %14 = invoke noundef i32 @_ZNK4i18n12phonenumbers15PhoneNumberUtil19GetNumberTypeHelperERKNSt7__cxx1112basic_stringIcSt11char_traitsIcESaIcEEERKNS0_13PhoneMetadataE(ptr noundef nonnull align 8 dereferenceable(64) %0, ptr noundef nonnull align 8 dereferenceable(32) %4, ptr noundef nonnull align 8 dereferenceable(280) %8)
          to label %15 unwind label %16, !range !98

15:                                               ; preds = %13
  call void @_ZNSt7__cxx1112basic_stringIcSt11char_traitsIcESaIcEED1Ev(ptr noundef nonnull align 8 dereferenceable(32) %4) #26
  br label %18

16:                                               ; preds = %13, %12
  %17 = landingpad { ptr, i32 }
          cleanup
  call void @_ZNSt7__cxx1112basic_stringIcSt11char_traitsIcESaIcEED1Ev(ptr noundef nonnull align 8 dereferenceable(32) %4) #26
  br label %19

18:                                               ; preds = %9, %15
  %.0 = phi i32 [ %14, %15 ], [ 11, %9 ]
  call void @_ZNSt7__cxx1112basic_stringIcSt11char_traitsIcESaIcEED1Ev(ptr noundef nonnull align 8 dereferenceable(32) %3) #26
  ret i32 %.0

19:                                               ; preds = %16, %10
  %.pn = phi { ptr, i32 } [ %17, %16 ], [ %11, %10 ]
  call void @_ZNSt7__cxx1112basic_stringIcSt11char_traitsIcESaIcEED1Ev(ptr noundef nonnull align 8 dereferenceable(32) %3) #26
  resume { ptr, i32 } %.pn
}